target datalayout = "e-m:e-p270:32:32-p271:32:32-p272:64:64-i64:64-i128:128-f80:128-n8:16:32:64-S128"
target triple = "x86_64-pc-linux-gnu"

%struct.anon = type { i32, ptr }
%"class.std::locale" = type { ptr }
%"class.std::ios_base" = type { ptr, i64, i64, i32, i32, i32, ptr, %"struct.std::ios_base::_Words", [8 x %"struct.std::ios_base::_Words"], i32, ptr, %"class.std::locale" }
%"struct.std::ios_base::_Words" = type { ptr, i64 }
%struct.sigaction = type { %union.anon, %struct.__sigset_t, i32, ptr }
%union.anon = type { ptr }
%struct.__sigset_t = type { [16 x i64] }
%"struct.google::logging::internal::LogMessageVoidify" = type { i8 }
%"class.google::ErrnoLogMessage" = type { %"class.google::LogMessage" }
%"class.google::LogMessage" = type { ptr, ptr, %"struct.google::LogMessageTime" }
%"struct.google::LogMessageTime" = type { %struct.tm, %"class.std::chrono::time_point", %"class.std::chrono::duration.0", %"class.std::chrono::duration.1" }
%struct.tm = type { i32, i32, i32, i32, i32, i32, i32, i32, i32, i64, ptr }
%"class.std::chrono::time_point" = type { %"class.std::chrono::duration" }
%"class.std::chrono::duration" = type { i64 }
%"class.std::chrono::duration.0" = type { i64 }
%"class.std::chrono::duration.1" = type { i64 }

@.str = private unnamed_addr constant [108 x i8] c"generated/home/dtcxzyw/WorkSpace/Projects/compilers/llvm-opt-benchmark/bench/glog/glog/src/signalhandler.cc\00", align 1
@.str.1 = private unnamed_addr constant [55 x i8] c"sigaction(kFailureSignal.number, &sig_action, nullptr)\00", align 1
@_ZN6google12_GLOBAL__N_130kFailureSignalHandlerInstalledE = internal global i8 0, align 1

; Function Attrs: inlinehint mustprogress nounwind uwtable
define linkonce_odr noundef i32 @_ZStorSt12_Ios_IostateS_(i32 noundef %0, i32 noundef %1) #11 comdat {
  %3 = alloca i32, align 4
  %4 = alloca i32, align 4
  store i32 %0, ptr %3, align 4, !tbaa !147
  store i32 %1, ptr %4, align 4, !tbaa !147
  %5 = load i32, ptr %3, align 4, !tbaa !147
  %6 = load i32, ptr %4, align 4, !tbaa !147
  %7 = or i32 %5, %6
  ret i32 %7
}

; Function Attrs: mustprogress nounwind uwtable
define available_externally noundef i32 @_ZNKSt9basic_iosIcSt11char_traitsIcEE7rdstateEv(ptr noundef nonnull align 8 dereferenceable(264) %0) #2 align 2 {
  %2 = alloca ptr, align 8
  store ptr %0, ptr %2, align 8, !tbaa !31
  %3 = load ptr, ptr %2, align 8
  %4 = getelementptr inbounds nuw %"class.std::ios_base", ptr %3, i32 0, i32 5
  %5 = load i32, ptr %4, align 8, !tbaa !148
  ret i32 %5
}

; Function Attrs: mustprogress nounwind uwtable
define linkonce_odr hidden noundef i64 @_ZNSt11char_traitsIcE6lengthEPKc(ptr noundef %0) #2 comdat align 2 {
  %2 = alloca ptr, align 8
  store ptr %0, ptr %2, align 8, !tbaa !9
  %3 = load ptr, ptr %2, align 8, !tbaa !9
  %4 = call i64 @strlen(ptr noundef %3) #18
  ret i64 %4
}

; Function Attrs: mustprogress uwtable
define available_externally void @_ZNSt9basic_iosIcSt11char_traitsIcEE8setstateESt12_Ios_Iostate(ptr noundef nonnull align 8 dereferenceable(264) %0, i32 noundef %1) #0 align 2 {
  %3 = alloca ptr, align 8
  %4 = alloca i32, align 4
  store ptr %0, ptr %3, align 8, !tbaa !31
  store i32 %1, ptr %4, align 4, !tbaa !147
  %5 = load ptr, ptr %3, align 8
  %6 = call noundef i32 @_ZNKSt9basic_iosIcSt11char_traitsIcEE7rdstateEv(ptr noundef nonnull align 8 dereferenceable(264) %5)
  %7 = load i32, ptr %4, align 4, !tbaa !147
  %8 = call noundef i32 @_ZStorSt12_Ios_IostateS_(i32 noundef %6, i32 noundef %7)
  call void @_ZNSt9basic_iosIcSt11char_traitsIcEE5clearESt12_Ios_Iostate(ptr noundef nonnull align 8 dereferenceable(264) %5, i32 noundef %8)
  ret void
}

; Function Attrs: mustprogress nounwind uwtable
define linkonce_odr hidden void @_ZNK6google7logging8internal17LogMessageVoidifyanERSo(ptr noundef nonnull align 1 dereferenceable(1) %0, ptr noundef nonnull align 8 dereferenceable(8) %1) #2 comdat align 2 {
  %3 = alloca ptr, align 8
  %4 = alloca ptr, align 8
  store ptr %0, ptr %3, align 8, !tbaa !59
  store ptr %1, ptr %4, align 8, !tbaa !25
  ret void
}

; Function Attrs: inlinehint mustprogress uwtable
define available_externally noundef nonnull align 8 dereferenceable(8) ptr @_ZStlsISt11char_traitsIcEERSt13basic_ostreamIcT_ES5_PKc(ptr noundef nonnull align 8 dereferenceable(8) %0, ptr noundef %1) #8 {
  %3 = alloca ptr, align 8
  %4 = alloca ptr, align 8
  store ptr %0, ptr %3, align 8, !tbaa !25
  store ptr %1, ptr %4, align 8, !tbaa !9
  %5 = load ptr, ptr %4, align 8, !tbaa !9
  %6 = icmp ne ptr %5, null
  br i1 %6, label %13, label %7

7:                                                ; preds = %2
  %8 = load ptr, ptr %3, align 8, !tbaa !25
  %9 = load ptr, ptr %8, align 8, !tbaa !15
  %10 = getelementptr i8, ptr %9, i64 -24
  %11 = load i64, ptr %10, align 8
  %12 = getelementptr inbounds i8, ptr %8, i64 %11
  call void @_ZNSt9basic_iosIcSt11char_traitsIcEE8setstateESt12_Ios_Iostate(ptr noundef nonnull align 8 dereferenceable(264) %12, i32 noundef 1)
  br label %19

13:                                               ; preds = %2
  %14 = load ptr, ptr %3, align 8, !tbaa !25
  %15 = load ptr, ptr %4, align 8, !tbaa !9
  %16 = load ptr, ptr %4, align 8, !tbaa !9
  %17 = call noundef i64 @_ZNSt11char_traitsIcE6lengthEPKc(ptr noundef %16)
  %18 = call noundef nonnull align 8 dereferenceable(8) ptr @_ZSt16__ostream_insertIcSt11char_traitsIcEERSt13basic_ostreamIT_T0_ES6_PKS3_l(ptr noundef nonnull align 8 dereferenceable(8) %14, ptr noundef %15, i64 noundef %17)
  br label %19

19:                                               ; preds = %13, %7
  %20 = load ptr, ptr %3, align 8, !tbaa !25
  ret ptr %20
}

; Function Attrs: mustprogress uwtable
define void @_ZN6google27InstallFailureSignalHandlerEv() #0 personality ptr @__gxx_personality_v0 {
  %1 = alloca %struct.sigaction, align 8
  %2 = alloca ptr, align 8
  %3 = alloca ptr, align 8
  %4 = alloca ptr, align 8
  %5 = alloca %struct.anon, align 8
  %6 = alloca %"struct.google::logging::internal::LogMessageVoidify", align 1
  %7 = alloca %"class.google::ErrnoLogMessage", align 8
  %8 = alloca i1, align 1
  %9 = alloca { i64, i64 }, align 8
  %10 = alloca i1, align 1
  %11 = alloca ptr, align 8
  %12 = alloca i32, align 4
  call void @llvm.lifetime.start.p0(i64 152, ptr %1) #18
  call void @llvm.memset.p0.i64(ptr align 8 %1, i8 0, i64 152, i1 false)
  %13 = getelementptr inbounds nuw %struct.sigaction, ptr %1, i32 0, i32 1
  %14 = call i32 @sigemptyset(ptr noundef %13) #18
  %15 = getelementptr inbounds nuw %struct.sigaction, ptr %1, i32 0, i32 2
  %16 = load i32, ptr %15, align 8, !tbaa !52
  %17 = or i32 %16, 4
  store i32 %17, ptr %15, align 8, !tbaa !52
  %18 = getelementptr inbounds nuw %struct.sigaction, ptr %1, i32 0, i32 0
  store ptr @_ZN6google12_GLOBAL__N_120FailureSignalHandlerEiP9siginfo_tPv, ptr %18, align 8, !tbaa !51
  call void @llvm.lifetime.start.p0(i64 8, ptr %2) #18
  store ptr @_ZN6google12_GLOBAL__N_115kFailureSignalsE, ptr %2, align 8, !tbaa !8
  call void @llvm.lifetime.start.p0(i64 8, ptr %3) #18
  store ptr @_ZN6google12_GLOBAL__N_115kFailureSignalsE, ptr %3, align 8, !tbaa !8
  call void @llvm.lifetime.start.p0(i64 8, ptr %4) #18
  store ptr getelementptr inbounds (%struct.anon, ptr @_ZN6google12_GLOBAL__N_115kFailureSignalsE, i64 6), ptr %4, align 8, !tbaa !8
  br label %19

19:                                               ; preds = %46, %0
  %20 = load ptr, ptr %3, align 8, !tbaa !8
  %21 = load ptr, ptr %4, align 8, !tbaa !8
  %22 = icmp ne ptr %20, %21
  br i1 %22, label %24, label %23

23:                                               ; preds = %19
  call void @llvm.lifetime.end.p0(i64 8, ptr %4) #18
  call void @llvm.lifetime.end.p0(i64 8, ptr %3) #18
  call void @llvm.lifetime.end.p0(i64 8, ptr %2) #18
  br label %60

24:                                               ; preds = %19
  call void @llvm.lifetime.start.p0(i64 16, ptr %5) #18
  %25 = load ptr, ptr %3, align 8, !tbaa !8
  call void @llvm.memcpy.p0.p0.i64(ptr align 8 %5, ptr align 8 %25, i64 16, i1 false), !tbaa.struct !55
  %26 = getelementptr inbounds nuw %struct.anon, ptr %5, i32 0, i32 0
  %27 = load i32, ptr %26, align 8, !tbaa !56
  %28 = call i32 @sigaction(i32 noundef %27, ptr noundef %1, ptr noundef null) #18
  %29 = icmp eq i32 %28, -1
  %30 = zext i1 %29 to i64
  %31 = call i64 @llvm.expect.i64(i64 %30, i64 0)
  %32 = icmp ne i64 %31, 0
  call void @llvm.lifetime.start.p0(i64 1, ptr %6) #18
  store i1 false, ptr %8, align 1
  store i1 false, ptr %10, align 1
  br i1 %32, label %34, label %33

33:                                               ; preds = %24
  br label %39

34:                                               ; preds = %24
  call void @llvm.lifetime.start.p0(i64 96, ptr %7) #18
  store i1 true, ptr %8, align 1
  call void @llvm.lifetime.start.p0(i64 16, ptr %9) #18
  store { i64, i64 } { i64 ptrtoint (ptr @_ZN6google10LogMessage9SendToLogEv to i64), i64 0 }, ptr %9, align 8, !tbaa !51
  call void @_ZN6google15ErrnoLogMessageC1EPKciNS_11LogSeverityElMNS_10LogMessageEFvvE(ptr noundef nonnull align 8 dereferenceable(96) %7, ptr noundef @.str, i32 noundef 395, i32 noundef 3, i64 noundef 0, ptr noundef byval({ i64, i64 }) align 8 %9)
  call void @llvm.lifetime.end.p0(i64 16, ptr %9) #18
  store i1 true, ptr %10, align 1
  %35 = invoke noundef nonnull align 8 dereferenceable(8) ptr @_ZN6google10LogMessage6streamEv(ptr noundef nonnull align 8 dereferenceable(96) %7)
          to label %36 unwind label %49

36:                                               ; preds = %34
  %37 = invoke noundef nonnull align 8 dereferenceable(8) ptr @_ZStlsISt11char_traitsIcEERSt13basic_ostreamIcT_ES5_PKc(ptr noundef nonnull align 8 dereferenceable(8) %35, ptr noundef @.str.1)
          to label %38 unwind label %49

38:                                               ; preds = %36
  call void @_ZNK6google7logging8internal17LogMessageVoidifyanERSo(ptr noundef nonnull align 1 dereferenceable(1) %6, ptr noundef nonnull align 8 dereferenceable(8) %37) #18
  br label %39

39:                                               ; preds = %38, %33
  %40 = load i1, ptr %10, align 1
  br i1 %40, label %41, label %42

41:                                               ; preds = %39
  call void @_ZN6google15ErrnoLogMessageD1Ev(ptr noundef nonnull align 8 dereferenceable(96) %7)
  br label %42

42:                                               ; preds = %41, %39
  %43 = load i1, ptr %8, align 1
  br i1 %43, label %44, label %45

44:                                               ; preds = %42
  call void @llvm.lifetime.end.p0(i64 96, ptr %7) #18
  br label %45

45:                                               ; preds = %44, %42
  call void @llvm.lifetime.end.p0(i64 1, ptr %6) #18
  call void @llvm.lifetime.end.p0(i64 16, ptr %5) #18
  br label %46

46:                                               ; preds = %45
  %47 = load ptr, ptr %3, align 8, !tbaa !8
  %48 = getelementptr inbounds nuw %struct.anon, ptr %47, i32 1
  store ptr %48, ptr %3, align 8, !tbaa !8
  br label %19

49:                                               ; preds = %36, %34
  %50 = landingpad { ptr, i32 }
          cleanup
  %51 = extractvalue { ptr, i32 } %50, 0
  store ptr %51, ptr %11, align 8
  %52 = extractvalue { ptr, i32 } %50, 1
  store i32 %52, ptr %12, align 4
  %53 = load i1, ptr %10, align 1
  br i1 %53, label %54, label %56

54:                                               ; preds = %49
  invoke void @_ZN6google15ErrnoLogMessageD1Ev(ptr noundef nonnull align 8 dereferenceable(96) %7)
          to label %55 unwind label %66

55:                                               ; preds = %54
  br label %56

56:                                               ; preds = %55, %49
  %57 = load i1, ptr %8, align 1
  br i1 %57, label %58, label %59

58:                                               ; preds = %56
  call void @llvm.lifetime.end.p0(i64 96, ptr %7) #18
  br label %59

59:                                               ; preds = %58, %56
  call void @llvm.lifetime.end.p0(i64 1, ptr %6) #18
  call void @llvm.lifetime.end.p0(i64 16, ptr %5) #18
  call void @llvm.lifetime.end.p0(i64 8, ptr %4) #18
  call void @llvm.lifetime.end.p0(i64 8, ptr %3) #18
  call void @llvm.lifetime.end.p0(i64 8, ptr %2) #18
  call void @llvm.lifetime.end.p0(i64 152, ptr %1) #18
  br label %61

60:                                               ; preds = %23
  store i8 1, ptr @_ZN6google12_GLOBAL__N_130kFailureSignalHandlerInstalledE, align 1, !tbaa !58
  call void @llvm.lifetime.end.p0(i64 152, ptr %1) #18
  ret void

61:                                               ; preds = %59
  %62 = load ptr, ptr %11, align 8
  %63 = load i32, ptr %12, align 4
  %64 = insertvalue { ptr, i32 } poison, ptr %62, 0
  %65 = insertvalue { ptr, i32 } %64, i32 %63, 1
  resume { ptr, i32 } %65

66:                                               ; preds = %54
  %67 = landingpad { ptr, i32 }
          catch ptr null
  %68 = extractvalue { ptr, i32 } %67, 0
  call void @__clang_call_terminate(ptr %68) #19
  unreachable
}