; Function Attrs: mustprogress uwtable
define void @_ZN6google27InstallFailureSignalHandlerEv() local_unnamed_addr #0 personality ptr @__gxx_personality_v0 {
  %1 = alloca %struct.sigaction, align 8
  %2 = alloca %"class.google::ErrnoLogMessage", align 8
  %3 = alloca { i64, i64 }, align 8
  call void @llvm.lifetime.start.p0(i64 152, ptr nonnull %1) #23
  call void @llvm.memset.p0.i64(ptr noundef nonnull align 8 dereferenceable(152) %1, i8 0, i64 152, i1 false)
  %4 = getelementptr inbounds nuw i8, ptr %1, i64 8
  %5 = call i32 @sigemptyset(ptr noundef nonnull %4) #23
  %6 = getelementptr inbounds nuw i8, ptr %1, i64 136
  %7 = load i32, ptr %6, align 8, !tbaa !44
  %8 = or i32 %7, 4
  store i32 %8, ptr %6, align 8, !tbaa !44
  store ptr @_ZN6google12_GLOBAL__N_120FailureSignalHandlerEiP9siginfo_tPv, ptr %1, align 8, !tbaa !39
  %.fca.1.gep = getelementptr inbounds nuw i8, ptr %3, i64 8
  br label %10

9:                                                ; preds = %.critedge11
  call void @llvm.lifetime.end.p0(i64 152, ptr nonnull %1) #23
  ret void

10:                                               ; preds = %0, %.critedge11
  %.0.idx12 = phi i64 [ 0, %0 ], [ %.0.add, %.critedge11 ]
  %.0.ptr = getelementptr inbounds nuw i8, ptr @_ZN6google12_GLOBAL__N_115kFailureSignalsE, i64 %.0.idx12
  %.sroa.0.0.copyload = load i32, ptr %.0.ptr, align 16, !tbaa !40
  %11 = call i32 @sigaction(i32 noundef %.sroa.0.0.copyload, ptr noundef nonnull %1, ptr noundef null) #23
  %12 = icmp eq i32 %11, -1
  br i1 %12, label %13, label %.critedge11, !prof !47

13:                                               ; preds = %10
  call void @llvm.lifetime.start.p0(i64 96, ptr nonnull %2) #23
  call void @llvm.lifetime.start.p0(i64 16, ptr nonnull %3) #23
  store i64 ptrtoint (ptr @_ZN6google10LogMessage9SendToLogEv to i64), ptr %3, align 8, !tbaa !39
  store i64 0, ptr %.fca.1.gep, align 8, !tbaa !39
  call void @_ZN6google15ErrnoLogMessageC1EPKciNS_11LogSeverityElMNS_10LogMessageEFvvE(ptr noundef nonnull align 8 dereferenceable(96) %2, ptr noundef nonnull @.str, i32 noundef 395, i32 noundef 3, i64 noundef 0, ptr noundef nonnull byval({ i64, i64 }) align 8 %3)
  call void @llvm.lifetime.end.p0(i64 16, ptr nonnull %3) #23
  %14 = invoke noundef nonnull align 8 dereferenceable(8) ptr @_ZN6google10LogMessage6streamEv(ptr noundef nonnull align 8 dereferenceable(96) %2)
          to label %15 unwind label %17

15:                                               ; preds = %13
  %16 = invoke noundef nonnull align 8 dereferenceable(8) ptr @_ZSt16__ostream_insertIcSt11char_traitsIcEERSt13basic_ostreamIT_T0_ES6_PKS3_l(ptr noundef nonnull align 8 dereferenceable(8) %14, ptr noundef nonnull @.str.1, i64 noundef 54)
          to label %.critedge unwind label %17

.critedge:                                        ; preds = %15
  call void @_ZN6google15ErrnoLogMessageD1Ev(ptr noundef nonnull align 8 dereferenceable(96) %2)
  call void @llvm.lifetime.end.p0(i64 96, ptr nonnull %2) #23
  br label %.critedge11

.critedge11:                                      ; preds = %10, %.critedge
  %.0.add = add nuw nsw i64 %.0.idx12, 16
  %.not = icmp eq i64 %.0.add, 96
  br i1 %.not, label %9, label %10

17:                                               ; preds = %15, %13
  %18 = landingpad { ptr, i32 }
          cleanup
  invoke void @_ZN6google15ErrnoLogMessageD1Ev(ptr noundef nonnull align 8 dereferenceable(96) %2)
          to label %19 unwind label %20

19:                                               ; preds = %17
  call void @llvm.lifetime.end.p0(i64 96, ptr nonnull %2) #23
  call void @llvm.lifetime.end.p0(i64 152, ptr nonnull %1) #23
  resume { ptr, i32 } %18

20:                                               ; preds = %17
  %21 = landingpad { ptr, i32 }
          catch ptr null
  %22 = extractvalue { ptr, i32 } %21, 0
  call void @__clang_call_terminate(ptr %22) #25
  unreachable
}